target datalayout = "e-m:e-p270:32:32-p271:32:32-p272:64:64-i64:64-i128:128-f80:128-n8:16:32:64-S128"
target triple = "x86_64-pc-linux-gnu"

; Function Attrs: mustprogress nounwind uwtable
define dso_local noundef i32 @_ZNK8simdjson8fallback14implementation6minifyEPKhmPhRm(ptr noundef nonnull align 8 dereferenceable(48) %0, ptr noundef %1, i64 noundef %2, ptr noundef %3, ptr noundef nonnull align 8 dereferenceable(8) %4) unnamed_addr #2 align 2 {
  %6 = alloca ptr, align 8
  %7 = alloca ptr, align 8
  %8 = alloca i64, align 8
  %9 = alloca ptr, align 8
  %10 = alloca ptr, align 8
  %11 = alloca i64, align 8
  %12 = alloca i64, align 8
  %13 = alloca i8, align 1
  %14 = alloca i8, align 1
  %15 = alloca i8, align 1
  %16 = alloca ptr, align 8
  store ptr %0, ptr %6, align 8, !tbaa !185
  store ptr %1, ptr %7, align 8, !tbaa !4
  store i64 %2, ptr %8, align 8, !tbaa !21
  store ptr %3, ptr %9, align 8, !tbaa !4
  store ptr %4, ptr %10, align 8, !tbaa !86
  call void @llvm.lifetime.start.p0(i64 8, ptr %11) #10
  store i64 0, ptr %11, align 8, !tbaa !21
  call void @llvm.lifetime.start.p0(i64 8, ptr %12) #10
  store i64 0, ptr %12, align 8, !tbaa !21
  call void @llvm.lifetime.start.p0(i64 1, ptr %13) #10
  store i8 0, ptr %13, align 1, !tbaa !15
  call void @llvm.lifetime.start.p0(i64 1, ptr %14) #10
  store i8 1, ptr %14, align 1, !tbaa !15
  br label %17

17:                                               ; preds = %21, %5
  %18 = load i64, ptr %11, align 8, !tbaa !21
  %19 = load i64, ptr %8, align 8, !tbaa !21
  %20 = icmp ult i64 %18, %19
  br i1 %20, label %21, label %69

21:                                               ; preds = %17
  call void @llvm.lifetime.start.p0(i64 1, ptr %15) #10
  %22 = load ptr, ptr %7, align 8, !tbaa !4
  %23 = load i64, ptr %11, align 8, !tbaa !21
  %24 = getelementptr inbounds nuw i8, ptr %22, i64 %23
  %25 = load i8, ptr %24, align 1, !tbaa !15
  store i8 %25, ptr %15, align 1, !tbaa !15
  call void @llvm.lifetime.start.p0(i64 8, ptr %16) #10
  %26 = load i8, ptr %15, align 1, !tbaa !15
  %27 = zext i8 %26 to i32
  %28 = mul nsw i32 3, %27
  %29 = sext i32 %28 to i64
  %30 = getelementptr inbounds i8, ptr @_ZN8simdjson8fallbackL10jump_tableE, i64 %29
  store ptr %30, ptr %16, align 8, !tbaa !4
  %31 = load i8, ptr %13, align 1, !tbaa !15
  %32 = zext i8 %31 to i32
  %33 = load ptr, ptr %16, align 8, !tbaa !4
  %34 = getelementptr inbounds i8, ptr %33, i64 0
  %35 = load i8, ptr %34, align 1, !tbaa !15
  %36 = zext i8 %35 to i32
  %37 = load i8, ptr %14, align 1, !tbaa !15
  %38 = zext i8 %37 to i32
  %39 = and i32 %36, %38
  %40 = xor i32 %32, %39
  %41 = trunc i32 %40 to i8
  store i8 %41, ptr %13, align 1, !tbaa !15
  %42 = load i8, ptr %15, align 1, !tbaa !15
  %43 = load ptr, ptr %9, align 8, !tbaa !4
  %44 = load i64, ptr %12, align 8, !tbaa !21
  %45 = getelementptr inbounds nuw i8, ptr %43, i64 %44
  store i8 %42, ptr %45, align 1, !tbaa !15
  %46 = load ptr, ptr %16, align 8, !tbaa !4
  %47 = getelementptr inbounds i8, ptr %46, i64 2
  %48 = load i8, ptr %47, align 1, !tbaa !15
  %49 = zext i8 %48 to i32
  %50 = load i8, ptr %13, align 1, !tbaa !15
  %51 = zext i8 %50 to i32
  %52 = or i32 %49, %51
  %53 = sext i32 %52 to i64
  %54 = load i64, ptr %12, align 8, !tbaa !21
  %55 = add i64 %54, %53
  store i64 %55, ptr %12, align 8, !tbaa !21
  %56 = load i64, ptr %11, align 8, !tbaa !21
  %57 = add i64 %56, 1
  store i64 %57, ptr %11, align 8, !tbaa !21
  %58 = load i8, ptr %14, align 1, !tbaa !15
  %59 = zext i8 %58 to i32
  %60 = xor i32 %59, -1
  %61 = trunc i32 %60 to i8
  %62 = zext i8 %61 to i32
  %63 = load ptr, ptr %16, align 8, !tbaa !4
  %64 = getelementptr inbounds i8, ptr %63, i64 1
  %65 = load i8, ptr %64, align 1, !tbaa !15
  %66 = zext i8 %65 to i32
  %67 = or i32 %62, %66
  %68 = trunc i32 %67 to i8
  store i8 %68, ptr %14, align 1, !tbaa !15
  call void @llvm.lifetime.end.p0(i64 8, ptr %16) #10
  call void @llvm.lifetime.end.p0(i64 1, ptr %15) #10
  br label %17, !llvm.loop !213

69:                                               ; preds = %17
  %70 = load i64, ptr %12, align 8, !tbaa !21
  %71 = load ptr, ptr %10, align 8, !tbaa !86
  store i64 %70, ptr %71, align 8, !tbaa !21
  %72 = load i8, ptr %13, align 1, !tbaa !15
  %73 = icmp ne i8 %72, 0
  %74 = select i1 %73, i32 15, i32 0
  call void @llvm.lifetime.end.p0(i64 1, ptr %14) #10
  call void @llvm.lifetime.end.p0(i64 1, ptr %13) #10
  call void @llvm.lifetime.end.p0(i64 8, ptr %12) #10
  call void @llvm.lifetime.end.p0(i64 8, ptr %11) #10
  ret i32 %74
}