; Function Attrs: mustprogress nofree norecurse nosync nounwind memory(argmem: readwrite) uwtable
define dso_local noundef range(i32 0, 16) i32 @_ZNK8simdjson8fallback14implementation6minifyEPKhmPhRm(ptr nonnull readnone align 8 captures(none) %0, ptr noundef readonly captures(none) %1, i64 noundef %2, ptr noundef writeonly captures(none) %3, ptr noundef nonnull writeonly align 8 captures(none) dereferenceable(8) %4) unnamed_addr #5 align 2 {
  %.not27 = icmp eq i64 %2, 0
  br i1 %.not27, label %._crit_edge, label %.lr.ph

.lr.ph:                                           ; preds = %5, %.lr.ph
  %.025 = phi i64 [ %20, %.lr.ph ], [ 0, %5 ]
  %.01924 = phi i64 [ %19, %.lr.ph ], [ 0, %5 ]
  %.02023 = phi i8 [ %24, %.lr.ph ], [ 1, %5 ]
  %.02122 = phi i8 [ %13, %.lr.ph ], [ 0, %5 ]
  %6 = getelementptr inbounds nuw i8, ptr %1, i64 %.025
  %7 = load i8, ptr %6, align 1, !tbaa !4
  %8 = zext i8 %7 to i64
  %9 = mul nuw nsw i64 %8, 3
  %10 = getelementptr inbounds nuw i8, ptr @_ZN8simdjson8fallbackL10jump_tableE, i64 %9
  %11 = load i8, ptr %10, align 1, !tbaa !4
  %12 = and i8 %11, %.02023
  %13 = xor i8 %12, %.02122
  %14 = getelementptr inbounds nuw i8, ptr %3, i64 %.01924
  store i8 %7, ptr %14, align 1, !tbaa !4
  %15 = getelementptr inbounds nuw i8, ptr %10, i64 2
  %16 = load i8, ptr %15, align 1, !tbaa !4
  %17 = or i8 %16, %13
  %18 = zext i8 %17 to i64
  %19 = add i64 %.01924, %18
  %20 = add nuw i64 %.025, 1
  %21 = xor i8 %.02023, -1
  %22 = getelementptr inbounds nuw i8, ptr %10, i64 1
  %23 = load i8, ptr %22, align 1, !tbaa !4
  %24 = or i8 %23, %21
  %exitcond.not = icmp eq i64 %20, %2
  br i1 %exitcond.not, label %._crit_edge.loopexit, label %.lr.ph, !llvm.loop !371

._crit_edge.loopexit:                             ; preds = %.lr.ph
  %25 = icmp eq i8 %12, %.02122
  %26 = select i1 %25, i32 0, i32 15
  br label %._crit_edge

._crit_edge:                                      ; preds = %._crit_edge.loopexit, %5
  %.021.lcssa = phi i32 [ 0, %5 ], [ %26, %._crit_edge.loopexit ]
  %.019.lcssa = phi i64 [ 0, %5 ], [ %19, %._crit_edge.loopexit ]
  store i64 %.019.lcssa, ptr %4, align 8, !tbaa !11
  ret i32 %.021.lcssa
}